; Function Attrs: nounwind sspstrong uwtable
define dso_local void @msix_notify(ptr noundef %dev, i32 noundef %vector) local_unnamed_addr #0 {
entry:
  %msix_entries_nr = getelementptr inbounds nuw i8, ptr %dev, i64 1268
  %0 = load i32, ptr %msix_entries_nr, align 4
  %cmp = icmp ult i32 %vector, %0
  br i1 %cmp, label %if.end, label %if.else

if.else:                                          ; preds = %entry
  tail call void @__assert_fail(ptr noundef nonnull @.str, ptr noundef nonnull @.str.1, i32 noundef 529, ptr noundef nonnull @__PRETTY_FUNCTION__.msix_notify) #15
  unreachable

if.end:                                           ; preds = %entry
  %msix_entry_used = getelementptr inbounds nuw i8, ptr %dev, i64 2144
  %1 = load ptr, ptr %msix_entry_used, align 16
  %idxprom = zext i32 %vector to i64
  %arrayidx = getelementptr i32, ptr %1, i64 %idxprom
  %2 = load i32, ptr %arrayidx, align 4
  %tobool.not = icmp eq i32 %2, 0
  br i1 %tobool.not, label %return, label %if.end2

if.end2:                                          ; preds = %if.end
  %msix_function_masked.i = getelementptr inbounds nuw i8, ptr %dev, i64 2152
  %3 = load i8, ptr %msix_function_masked.i, align 8
  %tobool.i = trunc i8 %3 to i1
  %mul.i.i = shl i32 %vector, 4
  %msix_table.i.i = getelementptr inbounds nuw i8, ptr %dev, i64 1272
  %4 = load i8, ptr @xen_allowed, align 1
  %tobool.i.i = trunc i8 %4 to i1
  br i1 %tobool.i.i, label %land.lhs.true.i.i, label %if.end.i.i

land.lhs.true.i.i:                                ; preds = %if.end2
  %5 = load ptr, ptr %msix_table.i.i, align 8
  %add.i.i = or disjoint i32 %mul.i.i, 8
  %idxprom.i.i = zext i32 %add.i.i to i64
  %arrayidx.i.i = getelementptr i8, ptr %5, i64 %idxprom.i.i
  %arrayidx.val.i.i = load i32, ptr %arrayidx.i.i, align 1
  %call1.i.i = tail call i32 @xen_is_pirq_msi(i32 noundef %arrayidx.val.i.i) #14
  %tobool2.not.i.i = icmp ne i32 %call1.i.i, 0
  %brmerge.i.i = or i1 %tobool2.not.i.i, %tobool.i
  br i1 %brmerge.i.i, label %msix_is_masked.exit, label %lor.rhs.i.i

if.end.i.i:                                       ; preds = %if.end2
  br i1 %tobool.i, label %if.then3, label %lor.rhs.i.i

lor.rhs.i.i:                                      ; preds = %if.end.i.i, %land.lhs.true.i.i
  %6 = load ptr, ptr %msix_table.i.i, align 8
  %add5.i.i = or disjoint i32 %mul.i.i, 12
  %idxprom6.i.i = zext i32 %add5.i.i to i64
  %arrayidx7.i.i = getelementptr i8, ptr %6, i64 %idxprom6.i.i
  %7 = load i8, ptr %arrayidx7.i.i, align 1
  %8 = and i8 %7, 1
  %tobool8.i.i.not = icmp eq i8 %8, 0
  br i1 %tobool8.i.i.not, label %if.end4, label %if.then3

msix_is_masked.exit:                              ; preds = %land.lhs.true.i.i
  br i1 %tobool2.not.i.i, label %if.end4, label %if.then3

if.then3:                                         ; preds = %if.end.i.i, %lor.rhs.i.i, %msix_is_masked.exit
  %rem1.i.i = and i32 %vector, 7
  %shl.i.i = shl nuw nsw i32 1, %rem1.i.i
  %conv.i.i = trunc nuw i32 %shl.i.i to i8
  %9 = getelementptr i8, ptr %dev, i64 1280
  %dev.val.i = load ptr, ptr %9, align 16
  %div.i.i = sdiv i32 %vector, 8
  %idx.ext.i.i = sext i32 %div.i.i to i64
  %add.ptr.i.i = getelementptr i8, ptr %dev.val.i, i64 %idx.ext.i.i
  %10 = load i8, ptr %add.ptr.i.i, align 1
  %or2.i = or i8 %10, %conv.i.i
  store i8 %or2.i, ptr %add.ptr.i.i, align 1
  br label %return

if.end4:                                          ; preds = %lor.rhs.i.i, %msix_is_masked.exit
  %msix_prepare_message.i = getelementptr inbounds nuw i8, ptr %dev, i64 1312
  %11 = load ptr, ptr %msix_prepare_message.i, align 16
  %call.i = tail call { i64, i32 } %11(ptr noundef nonnull %dev, i32 noundef %vector) #14
  %12 = extractvalue { i64, i32 } %call.i, 0
  %13 = extractvalue { i64, i32 } %call.i, 1
  tail call void @msi_send_message(ptr noundef nonnull %dev, i64 %12, i32 %13) #14
  br label %return

return:                                           ; preds = %if.end, %if.end4, %if.then3
  ret void
}